(dp1
S'failed'
p2
(lp3
sS'source_names'
p4
(lp5
S'tests/'
p6
asS'ids'
p7
(dp8
I1
(S'/Users/glipsl/Documents/work/esgf-prepare/esgprep/esgprep/tests/test_fetchini.py'
S'test_fetchini'
p9
S'TestFetchINI.test_fetch_all_projects'
tp10
sI2
(S'/Users/glipsl/Documents/work/esgf-prepare/esgprep/esgprep/tests/test_fetchini.py'
g9
S'TestFetchINI.test_fetch_list_of_projects'
tp11
sI3
(S'/Users/glipsl/Documents/work/esgf-prepare/esgprep/esgprep/tests/test_fetchini.py'
g9
S'TestFetchINI.test_fetch_one_project'
tp12
sI4
(S'/Users/glipsl/Documents/work/esgf-prepare/esgprep/esgprep/tests/test_fetchini.py'
g9
S'TestFetchINI.test_fetch_projects'
tp13
sI5
(S'/Users/glipsl/Documents/work/esgf-prepare/esgprep/esgprep/tests/test_fetchini.py'
S'test_fetchini'
Ntp14
ss.
